target datalayout = "e-m:e-p270:32:32-p271:32:32-p272:64:64-i64:64-i128:128-f80:128-n8:16:32:64-S128"
target triple = "x86_64-pc-linux-gnu"

%struct.pg_compress_specification = type { i32, i32, i32, i32, i8, ptr }
%struct.CompressFileHandle = type { ptr, ptr, ptr, ptr, ptr, ptr, ptr, ptr, ptr, %struct.pg_compress_specification, ptr }

@.str.7 = private unnamed_addr constant [6 x i8] c"%s.gz\00", align 1

; Function Attrs: nounwind uwtable
define internal zeroext i1 @Gzip_open_write(ptr noundef %0, ptr noundef %1, ptr noundef %2) #0 {
  %4 = alloca ptr, align 8
  %5 = alloca ptr, align 8
  %6 = alloca ptr, align 8
  %7 = alloca ptr, align 8
  %8 = alloca i8, align 1
  %9 = alloca i32, align 4
  store ptr %0, ptr %4, align 8
  store ptr %1, ptr %5, align 8
  store ptr %2, ptr %6, align 8
  call void @llvm.lifetime.start.p0(i64 8, ptr %7) #7
  call void @llvm.lifetime.start.p0(i64 1, ptr %8) #7
  call void @llvm.lifetime.start.p0(i64 4, ptr %9) #7
  %10 = load ptr, ptr %4, align 8
  %11 = call ptr (ptr, ...) @psprintf(ptr noundef @.str.7, ptr noundef %10)
  store ptr %11, ptr %7, align 8
  %12 = load ptr, ptr %6, align 8
  %13 = getelementptr inbounds nuw %struct.CompressFileHandle, ptr %12, i32 0, i32 0
  %14 = load ptr, ptr %13, align 8
  %15 = load ptr, ptr %7, align 8
  %16 = load ptr, ptr %5, align 8
  %17 = load ptr, ptr %6, align 8
  %18 = call zeroext i1 %14(ptr noundef %15, i32 noundef -1, ptr noundef %16, ptr noundef %17)
  %19 = zext i1 %18 to i8
  store i8 %19, ptr %8, align 1
  %20 = call ptr @__errno_location() #9
  %21 = load i32, ptr %20, align 4
  store i32 %21, ptr %9, align 4
  %22 = load ptr, ptr %7, align 8
  call void @pg_free(ptr noundef %22)
  %23 = load i32, ptr %9, align 4
  %24 = call ptr @__errno_location() #9
  store i32 %23, ptr %24, align 4
  %25 = load i8, ptr %8, align 1, !range !8, !noundef !9
  %26 = trunc i8 %25 to i1
  call void @llvm.lifetime.end.p0(i64 4, ptr %9) #7
  call void @llvm.lifetime.end.p0(i64 1, ptr %8) #7
  call void @llvm.lifetime.end.p0(i64 8, ptr %7) #7
  ret i1 %26
}