; Function Attrs: nounwind uwtable
define internal zeroext i1 @Gzip_open_write(ptr noundef %0, ptr noundef %1, ptr noundef %2) #0 {
  %4 = tail call ptr (ptr, ...) @psprintf(ptr noundef nonnull @.str.7, ptr noundef %0) #11
  %5 = load ptr, ptr %2, align 8
  %6 = tail call zeroext i1 %5(ptr noundef %4, i32 noundef -1, ptr noundef %1, ptr noundef nonnull %2) #11
  %7 = tail call ptr @__errno_location() #13
  %8 = load i32, ptr %7, align 4
  tail call void @pg_free(ptr noundef %4) #11
  store i32 %8, ptr %7, align 4
  ret i1 %6
}